; Function Attrs: mustprogress uwtable
define void @_ZN6google8protobuf9ListValueC2EPNS0_5ArenaERKS1_(ptr noundef nonnull align 8 dereferenceable(48) %this, ptr noundef %arena, ptr noundef nonnull align 8 dereferenceable(48) %from) unnamed_addr #3 align 2 personality ptr @__gxx_personality_v0 {
entry:
  %_internal_metadata_.i.i = getelementptr inbounds i8, ptr %this, i64 8
  %0 = ptrtoint ptr %arena to i64
  store i64 %0, ptr %_internal_metadata_.i.i, align 8
  store ptr getelementptr inbounds ({ [13 x ptr] }, ptr @_ZTVN6google8protobuf9ListValueE, i64 0, i32 0, i64 2), ptr %this, align 8
  %_internal_metadata_2 = getelementptr inbounds i8, ptr %from, i64 8
  %1 = load i64, ptr %_internal_metadata_2, align 8
  %and.i21 = and i64 %1, 1
  %tobool.i22.not = icmp eq i64 %and.i21, 0
  br i1 %tobool.i22.not, label %invoke.cont3, label %if.then.i12

if.then.i12:                                      ; preds = %entry
  %and.i = and i64 %1, -2
  %2 = inttoptr i64 %and.i to ptr
  %unknown_fields.i = getelementptr inbounds i8, ptr %2, i64 8
  tail call void @_ZN6google8protobuf8internal16InternalMetadata11DoMergeFromINS0_15UnknownFieldSetEEEvRKT_(ptr noundef nonnull align 8 dereferenceable(8) %_internal_metadata_.i.i, ptr noundef nonnull align 8 dereferenceable(24) %unknown_fields.i)
  br label %invoke.cont3

invoke.cont3:                                     ; preds = %if.then.i12, %entry
  %3 = getelementptr inbounds i8, ptr %this, i64 16
  %arena_.i.i.i = getelementptr inbounds i8, ptr %this, i64 32
  tail call void @llvm.memset.p0.i64(ptr noundef nonnull align 8 dereferenceable(16) %3, i8 0, i64 16, i1 false)
  store ptr %arena, ptr %arena_.i.i.i, align 8
  %current_size_.i.i.i.i.i = getelementptr inbounds i8, ptr %from, i64 24
  %4 = load i32, ptr %current_size_.i.i.i.i.i, align 8
  %cmp.i.i.i.i.i = icmp eq i32 %4, 0
  br i1 %cmp.i.i.i.i.i, label %_ZN6google8protobuf9ListValue5Impl_C2ENS0_8internal18InternalVisibilityEPNS0_5ArenaERKS2_.exit, label %if.end.i.i.i

if.end.i.i.i:                                     ; preds = %invoke.cont3
  %5 = getelementptr inbounds i8, ptr %from, i64 16
  tail call void @_ZN6google8protobuf8internal20RepeatedPtrFieldBase24MergeFromConcreteMessageERKS2_PFPvPNS0_5ArenaEPKvE(ptr noundef nonnull align 8 dereferenceable(24) %3, ptr noundef nonnull align 8 dereferenceable(24) %5, ptr noundef nonnull @_ZN6google8protobuf5Arena13CopyConstructINS0_5ValueEEEPvPS1_PKv)
  br label %_ZN6google8protobuf9ListValue5Impl_C2ENS0_8internal18InternalVisibilityEPNS0_5ArenaERKS2_.exit

_ZN6google8protobuf9ListValue5Impl_C2ENS0_8internal18InternalVisibilityEPNS0_5ArenaERKS2_.exit: ; preds = %if.end.i.i.i, %invoke.cont3
  %_cached_size_.i = getelementptr inbounds i8, ptr %this, i64 40
  store i32 0, ptr %_cached_size_.i, align 8
  ret void
}